target datalayout = "e-m:e-p270:32:32-p271:32:32-p272:64:64-i64:64-i128:128-f80:128-n8:16:32:64-S128"
target triple = "x86_64-pc-linux-gnu"

%struct.VP8EncIterator = type { i32, i32, ptr, ptr, ptr, ptr, ptr, ptr, ptr, ptr, ptr, [37 x i8], ptr, i32, [9 x i32], [9 x i32], [4 x [3 x i64]], i64, i64, ptr, i32, i32, i32, i32, [2 x [2 x i8]], ptr, ptr, ptr, ptr, ptr, ptr, [88 x i8], [3359 x i8] }

; Function Attrs: nounwind uwtable
define hidden void @VP8InitFilter(ptr noundef %0) #0 {
  %2 = alloca ptr, align 8
  %3 = alloca i32, align 4
  %4 = alloca i32, align 4
  store ptr %0, ptr %2, align 8, !tbaa !8
  %5 = load ptr, ptr %2, align 8, !tbaa !8
  %6 = getelementptr inbounds nuw %struct.VP8EncIterator, ptr %5, i32 0, i32 19
  %7 = load ptr, ptr %6, align 8, !tbaa !10
  %8 = icmp ne ptr %7, null
  br i1 %8, label %9, label %35

9:                                                ; preds = %1
  call void @llvm.lifetime.start.p0(i64 4, ptr %3) #4
  call void @llvm.lifetime.start.p0(i64 4, ptr %4) #4
  store i32 0, ptr %3, align 4, !tbaa !3
  br label %10

10:                                               ; preds = %31, %9
  %11 = load i32, ptr %3, align 4, !tbaa !3
  %12 = icmp slt i32 %11, 4
  br i1 %12, label %13, label %34

13:                                               ; preds = %10
  store i32 0, ptr %4, align 4, !tbaa !3
  br label %14

14:                                               ; preds = %27, %13
  %15 = load i32, ptr %4, align 4, !tbaa !3
  %16 = icmp slt i32 %15, 64
  br i1 %16, label %17, label %30

17:                                               ; preds = %14
  %18 = load ptr, ptr %2, align 8, !tbaa !8
  %19 = getelementptr inbounds nuw %struct.VP8EncIterator, ptr %18, i32 0, i32 19
  %20 = load ptr, ptr %19, align 8, !tbaa !10
  %21 = load i32, ptr %3, align 4, !tbaa !3
  %22 = sext i32 %21 to i64
  %23 = getelementptr inbounds [4 x [64 x double]], ptr %20, i64 0, i64 %22
  %24 = load i32, ptr %4, align 4, !tbaa !3
  %25 = sext i32 %24 to i64
  %26 = getelementptr inbounds [64 x double], ptr %23, i64 0, i64 %25
  store double 0.000000e+00, ptr %26, align 8, !tbaa !18
  br label %27

27:                                               ; preds = %17
  %28 = load i32, ptr %4, align 4, !tbaa !3
  %29 = add nsw i32 %28, 1
  store i32 %29, ptr %4, align 4, !tbaa !3
  br label %14, !llvm.loop !20

30:                                               ; preds = %14
  br label %31

31:                                               ; preds = %30
  %32 = load i32, ptr %3, align 4, !tbaa !3
  %33 = add nsw i32 %32, 1
  store i32 %33, ptr %3, align 4, !tbaa !3
  br label %10, !llvm.loop !22

34:                                               ; preds = %10
  call void @VP8SSIMDspInit()
  call void @llvm.lifetime.end.p0(i64 4, ptr %4) #4
  call void @llvm.lifetime.end.p0(i64 4, ptr %3) #4
  br label %35

35:                                               ; preds = %34, %1
  ret void
}