; Function Attrs: nounwind uwtable
define hidden void @VP8InitFilter(ptr noundef readonly captures(none) %0) local_unnamed_addr #1 {
  %2 = getelementptr inbounds nuw i8, ptr %0, i64 320
  %3 = load ptr, ptr %2, align 8, !tbaa !6
  %.not = icmp eq ptr %3, null
  br i1 %.not, label %4, label %.preheader.preheader

.preheader.preheader:                             ; preds = %1
  tail call void @llvm.memset.p0.i64(ptr noundef nonnull align 8 dereferenceable(2048) %3, i8 0, i64 2048, i1 false), !tbaa !16
  tail call void @VP8SSIMDspInit() #7
  br label %4

4:                                                ; preds = %.preheader.preheader, %1
  ret void
}